target datalayout = "e-m:e-p270:32:32-p271:32:32-p272:64:64-i64:64-i128:128-f80:128-n8:16:32:64-S128"
target triple = "x86_64-pc-linux-gnu"

; Function Attrs: alwaysinline nounwind willreturn memory(none) uwtable
define internal zeroext i8 @av_clip_uint8_c(i32 noundef %0) #4 {
  %2 = alloca i8, align 1
  %3 = alloca i32, align 4
  store i32 %0, ptr %3, align 4, !tbaa !9
  %4 = load i32, ptr %3, align 4, !tbaa !9
  %5 = and i32 %4, -256
  %6 = icmp ne i32 %5, 0
  br i1 %6, label %7, label %12

7:                                                ; preds = %1
  %8 = load i32, ptr %3, align 4, !tbaa !9
  %9 = xor i32 %8, -1
  %10 = ashr i32 %9, 31
  %11 = trunc i32 %10 to i8
  store i8 %11, ptr %2, align 1
  br label %15

12:                                               ; preds = %1
  %13 = load i32, ptr %3, align 4, !tbaa !9
  %14 = trunc i32 %13 to i8
  store i8 %14, ptr %2, align 1
  br label %15

15:                                               ; preds = %12, %7
  %16 = load i8, ptr %2, align 1
  ret i8 %16
}

; Function Attrs: nounwind uwtable
define internal void @add_pixels_clamped2_c(ptr noundef %0, ptr noalias noundef %1, i32 noundef %2) #3 {
  %4 = alloca ptr, align 8
  %5 = alloca ptr, align 8
  %6 = alloca i32, align 4
  %7 = alloca i32, align 4
  store ptr %0, ptr %4, align 8, !tbaa !18
  store ptr %1, ptr %5, align 8, !tbaa !4
  store i32 %2, ptr %6, align 4, !tbaa !9
  call void @llvm.lifetime.start.p0(i64 4, ptr %7) #5
  store i32 0, ptr %7, align 4, !tbaa !9
  br label %8

8:                                                ; preds = %42, %3
  %9 = load i32, ptr %7, align 4, !tbaa !9
  %10 = icmp slt i32 %9, 2
  br i1 %10, label %11, label %45

11:                                               ; preds = %8
  %12 = load ptr, ptr %5, align 8, !tbaa !4
  %13 = getelementptr inbounds i8, ptr %12, i64 0
  %14 = load i8, ptr %13, align 1, !tbaa !11
  %15 = zext i8 %14 to i32
  %16 = load ptr, ptr %4, align 8, !tbaa !18
  %17 = getelementptr inbounds i16, ptr %16, i64 0
  %18 = load i16, ptr %17, align 2, !tbaa !22
  %19 = sext i16 %18 to i32
  %20 = add nsw i32 %15, %19
  %21 = call zeroext i8 @av_clip_uint8_c(i32 noundef %20) #6
  %22 = load ptr, ptr %5, align 8, !tbaa !4
  %23 = getelementptr inbounds i8, ptr %22, i64 0
  store i8 %21, ptr %23, align 1, !tbaa !11
  %24 = load ptr, ptr %5, align 8, !tbaa !4
  %25 = getelementptr inbounds i8, ptr %24, i64 1
  %26 = load i8, ptr %25, align 1, !tbaa !11
  %27 = zext i8 %26 to i32
  %28 = load ptr, ptr %4, align 8, !tbaa !18
  %29 = getelementptr inbounds i16, ptr %28, i64 1
  %30 = load i16, ptr %29, align 2, !tbaa !22
  %31 = sext i16 %30 to i32
  %32 = add nsw i32 %27, %31
  %33 = call zeroext i8 @av_clip_uint8_c(i32 noundef %32) #6
  %34 = load ptr, ptr %5, align 8, !tbaa !4
  %35 = getelementptr inbounds i8, ptr %34, i64 1
  store i8 %33, ptr %35, align 1, !tbaa !11
  %36 = load i32, ptr %6, align 4, !tbaa !9
  %37 = load ptr, ptr %5, align 8, !tbaa !4
  %38 = sext i32 %36 to i64
  %39 = getelementptr inbounds i8, ptr %37, i64 %38
  store ptr %39, ptr %5, align 8, !tbaa !4
  %40 = load ptr, ptr %4, align 8, !tbaa !18
  %41 = getelementptr inbounds i16, ptr %40, i64 8
  store ptr %41, ptr %4, align 8, !tbaa !18
  br label %42

42:                                               ; preds = %11
  %43 = load i32, ptr %7, align 4, !tbaa !9
  %44 = add nsw i32 %43, 1
  store i32 %44, ptr %7, align 4, !tbaa !9
  br label %8, !llvm.loop !62

45:                                               ; preds = %8
  call void @llvm.lifetime.end.p0(i64 4, ptr %7) #5
  ret void
}

; Function Attrs: nounwind uwtable
define internal void @ff_jref_idct2_add(ptr noundef %0, i64 noundef %1, ptr noundef %2) #3 {
  %4 = alloca ptr, align 8
  %5 = alloca i64, align 8
  %6 = alloca ptr, align 8
  store ptr %0, ptr %4, align 8, !tbaa !4
  store i64 %1, ptr %5, align 8, !tbaa !20
  store ptr %2, ptr %6, align 8, !tbaa !18
  %7 = load ptr, ptr %6, align 8, !tbaa !18
  call void @ff_j_rev_dct2(ptr noundef %7)
  %8 = load ptr, ptr %6, align 8, !tbaa !18
  %9 = load ptr, ptr %4, align 8, !tbaa !4
  %10 = load i64, ptr %5, align 8, !tbaa !20
  %11 = trunc i64 %10 to i32
  call void @add_pixels_clamped2_c(ptr noundef %8, ptr noundef %9, i32 noundef %11)
  ret void
}