; Function Attrs: nounwind uwtable
define internal void @ff_jref_idct2_add(ptr noundef captures(none) %0, i64 noundef %1, ptr noundef %2) #4 {
  tail call void @ff_j_rev_dct2(ptr noundef %2) #7
  tail call void @llvm.experimental.noalias.scope.decl(metadata !61)
  %sext = shl i64 %1, 32
  %4 = ashr exact i64 %sext, 32
  br label %5

5:                                                ; preds = %5, %3
  %6 = phi i1 [ true, %3 ], [ false, %5 ]
  %.01016.i = phi ptr [ %2, %3 ], [ %24, %5 ]
  %.01115.i = phi ptr [ %0, %3 ], [ %23, %5 ]
  %7 = load i8, ptr %.01115.i, align 1, !tbaa !4, !alias.scope !61
  %8 = zext i8 %7 to i32
  %9 = load i16, ptr %.01016.i, align 2, !tbaa !13, !noalias !61
  %10 = sext i16 %9 to i32
  %11 = add nsw i32 %10, %8
  %.not.i12.i = icmp ult i32 %11, 256
  %isnotneg.i13.i = icmp sgt i32 %11, -1
  %12 = sext i1 %isnotneg.i13.i to i8
  %13 = trunc nuw i32 %11 to i8
  %.0.i14.i = select i1 %.not.i12.i, i8 %13, i8 %12
  store i8 %.0.i14.i, ptr %.01115.i, align 1, !tbaa !4, !alias.scope !61
  %14 = getelementptr inbounds nuw i8, ptr %.01115.i, i64 1
  %15 = load i8, ptr %14, align 1, !tbaa !4, !alias.scope !61
  %16 = zext i8 %15 to i32
  %17 = getelementptr inbounds nuw i8, ptr %.01016.i, i64 2
  %18 = load i16, ptr %17, align 2, !tbaa !13, !noalias !61
  %19 = sext i16 %18 to i32
  %20 = add nsw i32 %19, %16
  %.not.i.i = icmp ult i32 %20, 256
  %isnotneg.i.i = icmp sgt i32 %20, -1
  %21 = sext i1 %isnotneg.i.i to i8
  %22 = trunc nuw i32 %20 to i8
  %.0.i.i = select i1 %.not.i.i, i8 %22, i8 %21
  store i8 %.0.i.i, ptr %14, align 1, !tbaa !4, !alias.scope !61
  %23 = getelementptr inbounds i8, ptr %.01115.i, i64 %4
  %24 = getelementptr inbounds nuw i8, ptr %.01016.i, i64 16
  br i1 %6, label %5, label %add_pixels_clamped2_c.exit, !llvm.loop !64

add_pixels_clamped2_c.exit:                       ; preds = %5
  ret void
}